target datalayout = "e-m:e-p270:32:32-p271:32:32-p272:64:64-i64:64-i128:128-f80:128-n8:16:32:64-S128"
target triple = "x86_64-pc-linux-gnu"

; Function Attrs: nounwind uwtable
define internal i32 @dh_validate_private(ptr noundef %0) #0 {
  %2 = alloca i32, align 4
  %3 = alloca ptr, align 8
  %4 = alloca i32, align 4
  %5 = alloca ptr, align 8
  %6 = alloca i32, align 4
  store ptr %0, ptr %3, align 8, !tbaa !7
  call void @llvm.lifetime.start.p0(i64 4, ptr %4) #8
  store i32 0, ptr %4, align 4, !tbaa !9
  call void @llvm.lifetime.start.p0(i64 8, ptr %5) #8
  store ptr null, ptr %5, align 8, !tbaa !52
  %7 = load ptr, ptr %3, align 8, !tbaa !7
  call void @DH_get0_key(ptr noundef %7, ptr noundef null, ptr noundef %5)
  %8 = load ptr, ptr %5, align 8, !tbaa !52
  %9 = icmp eq ptr %8, null
  br i1 %9, label %10, label %11

10:                                               ; preds = %1
  store i32 0, ptr %2, align 4
  store i32 1, ptr %6, align 4
  br label %15

11:                                               ; preds = %1
  %12 = load ptr, ptr %3, align 8, !tbaa !7
  %13 = load ptr, ptr %5, align 8, !tbaa !52
  %14 = call i32 @ossl_dh_check_priv_key(ptr noundef %12, ptr noundef %13, ptr noundef %4)
  store i32 %14, ptr %2, align 4
  store i32 1, ptr %6, align 4
  br label %15

15:                                               ; preds = %11, %10
  call void @llvm.lifetime.end.p0(i64 8, ptr %5) #8
  call void @llvm.lifetime.end.p0(i64 4, ptr %4) #8
  %16 = load i32, ptr %2, align 4
  ret i32 %16
}

; Function Attrs: nounwind uwtable
define internal i32 @dh_validate_public(ptr noundef %0, i32 noundef %1) #0 {
  %3 = alloca i32, align 4
  %4 = alloca ptr, align 8
  %5 = alloca i32, align 4
  %6 = alloca ptr, align 8
  %7 = alloca i32, align 4
  %8 = alloca i32, align 4
  store ptr %0, ptr %4, align 8, !tbaa !7
  store i32 %1, ptr %5, align 4, !tbaa !9
  call void @llvm.lifetime.start.p0(i64 8, ptr %6) #8
  store ptr null, ptr %6, align 8, !tbaa !52
  call void @llvm.lifetime.start.p0(i64 4, ptr %7) #8
  store i32 0, ptr %7, align 4, !tbaa !9
  %9 = load ptr, ptr %4, align 8, !tbaa !7
  call void @DH_get0_key(ptr noundef %9, ptr noundef %6, ptr noundef null)
  %10 = load ptr, ptr %6, align 8, !tbaa !52
  %11 = icmp eq ptr %10, null
  br i1 %11, label %12, label %13

12:                                               ; preds = %2
  store i32 0, ptr %3, align 4
  store i32 1, ptr %8, align 4
  br label %25

13:                                               ; preds = %2
  %14 = load ptr, ptr %4, align 8, !tbaa !7
  %15 = call i32 @ossl_dh_is_named_safe_prime_group(ptr noundef %14)
  %16 = icmp ne i32 %15, 0
  br i1 %16, label %17, label %21

17:                                               ; preds = %13
  %18 = load ptr, ptr %4, align 8, !tbaa !7
  %19 = load ptr, ptr %6, align 8, !tbaa !52
  %20 = call i32 @ossl_dh_check_pub_key_partial(ptr noundef %18, ptr noundef %19, ptr noundef %7)
  store i32 %20, ptr %3, align 4
  store i32 1, ptr %8, align 4
  br label %25

21:                                               ; preds = %13
  %22 = load ptr, ptr %4, align 8, !tbaa !7
  %23 = load ptr, ptr %6, align 8, !tbaa !52
  %24 = call i32 @DH_check_pub_key_ex(ptr noundef %22, ptr noundef %23)
  store i32 %24, ptr %3, align 4
  store i32 1, ptr %8, align 4
  br label %25

25:                                               ; preds = %21, %17, %12
  call void @llvm.lifetime.end.p0(i64 4, ptr %7) #8
  call void @llvm.lifetime.end.p0(i64 8, ptr %6) #8
  %26 = load i32, ptr %3, align 4
  ret i32 %26
}

; Function Attrs: nounwind uwtable
define internal i32 @dh_validate(ptr noundef %0, i32 noundef %1, i32 noundef %2) #0 {
  %4 = alloca i32, align 4
  %5 = alloca ptr, align 8
  %6 = alloca i32, align 4
  %7 = alloca i32, align 4
  %8 = alloca ptr, align 8
  %9 = alloca i32, align 4
  %10 = alloca i32, align 4
  store ptr %0, ptr %5, align 8, !tbaa !3
  store i32 %1, ptr %6, align 4, !tbaa !9
  store i32 %2, ptr %7, align 4, !tbaa !9
  call void @llvm.lifetime.start.p0(i64 8, ptr %8) #8
  %11 = load ptr, ptr %5, align 8, !tbaa !3
  store ptr %11, ptr %8, align 8, !tbaa !7
  call void @llvm.lifetime.start.p0(i64 4, ptr %9) #8
  store i32 1, ptr %9, align 4, !tbaa !9
  %12 = call i32 @ossl_prov_is_running()
  %13 = icmp ne i32 %12, 0
  br i1 %13, label %15, label %14

14:                                               ; preds = %3
  store i32 0, ptr %4, align 4
  store i32 1, ptr %10, align 4
  br label %93

15:                                               ; preds = %3
  %16 = load i32, ptr %6, align 4, !tbaa !9
  %17 = and i32 %16, 7
  %18 = icmp eq i32 %17, 0
  br i1 %18, label %19, label %20

19:                                               ; preds = %15
  store i32 1, ptr %4, align 4
  store i32 1, ptr %10, align 4
  br label %93

20:                                               ; preds = %15
  %21 = load i32, ptr %6, align 4, !tbaa !9
  %22 = and i32 %21, 4
  %23 = icmp ne i32 %22, 0
  br i1 %23, label %24, label %48

24:                                               ; preds = %20
  %25 = load i32, ptr %7, align 4, !tbaa !9
  %26 = icmp eq i32 %25, 1
  br i1 %26, label %27, label %37

27:                                               ; preds = %24
  %28 = load i32, ptr %9, align 4, !tbaa !9
  %29 = icmp ne i32 %28, 0
  br i1 %29, label %30, label %34

30:                                               ; preds = %27
  %31 = load ptr, ptr %8, align 8, !tbaa !7
  %32 = call i32 @DH_check_params_ex(ptr noundef %31)
  %33 = icmp ne i32 %32, 0
  br label %34

34:                                               ; preds = %30, %27
  %35 = phi i1 [ false, %27 ], [ %33, %30 ]
  %36 = zext i1 %35 to i32
  store i32 %36, ptr %9, align 4, !tbaa !9
  br label %47

37:                                               ; preds = %24
  %38 = load i32, ptr %9, align 4, !tbaa !9
  %39 = icmp ne i32 %38, 0
  br i1 %39, label %40, label %44

40:                                               ; preds = %37
  %41 = load ptr, ptr %8, align 8, !tbaa !7
  %42 = call i32 @DH_check_ex(ptr noundef %41)
  %43 = icmp ne i32 %42, 0
  br label %44

44:                                               ; preds = %40, %37
  %45 = phi i1 [ false, %37 ], [ %43, %40 ]
  %46 = zext i1 %45 to i32
  store i32 %46, ptr %9, align 4, !tbaa !9
  br label %47

47:                                               ; preds = %44, %34
  br label %48

48:                                               ; preds = %47, %20
  %49 = load i32, ptr %6, align 4, !tbaa !9
  %50 = and i32 %49, 2
  %51 = icmp ne i32 %50, 0
  br i1 %51, label %52, label %63

52:                                               ; preds = %48
  %53 = load i32, ptr %9, align 4, !tbaa !9
  %54 = icmp ne i32 %53, 0
  br i1 %54, label %55, label %60

55:                                               ; preds = %52
  %56 = load ptr, ptr %8, align 8, !tbaa !7
  %57 = load i32, ptr %7, align 4, !tbaa !9
  %58 = call i32 @dh_validate_public(ptr noundef %56, i32 noundef %57)
  %59 = icmp ne i32 %58, 0
  br label %60

60:                                               ; preds = %55, %52
  %61 = phi i1 [ false, %52 ], [ %59, %55 ]
  %62 = zext i1 %61 to i32
  store i32 %62, ptr %9, align 4, !tbaa !9
  br label %63

63:                                               ; preds = %60, %48
  %64 = load i32, ptr %6, align 4, !tbaa !9
  %65 = and i32 %64, 1
  %66 = icmp ne i32 %65, 0
  br i1 %66, label %67, label %77

67:                                               ; preds = %63
  %68 = load i32, ptr %9, align 4, !tbaa !9
  %69 = icmp ne i32 %68, 0
  br i1 %69, label %70, label %74

70:                                               ; preds = %67
  %71 = load ptr, ptr %8, align 8, !tbaa !7
  %72 = call i32 @dh_validate_private(ptr noundef %71)
  %73 = icmp ne i32 %72, 0
  br label %74

74:                                               ; preds = %70, %67
  %75 = phi i1 [ false, %67 ], [ %73, %70 ]
  %76 = zext i1 %75 to i32
  store i32 %76, ptr %9, align 4, !tbaa !9
  br label %77

77:                                               ; preds = %74, %63
  %78 = load i32, ptr %6, align 4, !tbaa !9
  %79 = and i32 %78, 3
  %80 = icmp eq i32 %79, 3
  br i1 %80, label %81, label %91

81:                                               ; preds = %77
  %82 = load i32, ptr %9, align 4, !tbaa !9
  %83 = icmp ne i32 %82, 0
  br i1 %83, label %84, label %88

84:                                               ; preds = %81
  %85 = load ptr, ptr %8, align 8, !tbaa !7
  %86 = call i32 @ossl_dh_check_pairwise(ptr noundef %85)
  %87 = icmp ne i32 %86, 0
  br label %88

88:                                               ; preds = %84, %81
  %89 = phi i1 [ false, %81 ], [ %87, %84 ]
  %90 = zext i1 %89 to i32
  store i32 %90, ptr %9, align 4, !tbaa !9
  br label %91

91:                                               ; preds = %88, %77
  %92 = load i32, ptr %9, align 4, !tbaa !9
  store i32 %92, ptr %4, align 4
  store i32 1, ptr %10, align 4
  br label %93

93:                                               ; preds = %91, %19, %14
  call void @llvm.lifetime.end.p0(i64 4, ptr %9) #8
  call void @llvm.lifetime.end.p0(i64 8, ptr %8) #8
  %94 = load i32, ptr %4, align 4
  ret i32 %94
}