; Function Attrs: nounwind uwtable
define internal range(i32 0, 2) i32 @dh_validate(ptr noundef %0, i32 noundef %1, i32 noundef %2) #0 {
  %4 = alloca i32, align 4
  %5 = alloca ptr, align 8
  %6 = alloca ptr, align 8
  %7 = alloca i32, align 4
  %8 = tail call i32 @ossl_prov_is_running() #8
  %.not = icmp eq i32 %8, 0
  br i1 %.not, label %.thread28, label %9

9:                                                ; preds = %3
  %10 = and i32 %1, 7
  %11 = icmp eq i32 %10, 0
  br i1 %11, label %.thread28, label %12

12:                                               ; preds = %9
  %13 = and i32 %1, 4
  %.not20 = icmp eq i32 %13, 0
  br i1 %.not20, label %22, label %14

14:                                               ; preds = %12
  %15 = icmp eq i32 %2, 1
  br i1 %15, label %16, label %19

16:                                               ; preds = %14
  %17 = tail call i32 @DH_check_params_ex(ptr noundef %0) #8
  %18 = icmp ne i32 %17, 0
  br label %22

19:                                               ; preds = %14
  %20 = tail call i32 @DH_check_ex(ptr noundef %0) #8
  %21 = icmp ne i32 %20, 0
  br label %22

22:                                               ; preds = %16, %19, %12
  %.0.shrunk = phi i1 [ %18, %16 ], [ %21, %19 ], [ true, %12 ]
  %23 = and i32 %1, 2
  %.not21 = icmp ne i32 %23, 0
  %brmerge.not = select i1 %.not21, i1 %.0.shrunk, i1 false
  %not..not21 = xor i1 %.not21, true
  %narrow = select i1 %not..not21, i1 %.0.shrunk, i1 false
  br i1 %brmerge.not, label %24, label %35

24:                                               ; preds = %22
  call void @llvm.lifetime.start.p0(i64 8, ptr nonnull %6) #8
  store ptr null, ptr %6, align 8, !tbaa !43
  call void @llvm.lifetime.start.p0(i64 4, ptr nonnull %7) #8
  store i32 0, ptr %7, align 4, !tbaa !44
  call void @DH_get0_key(ptr noundef %0, ptr noundef nonnull %6, ptr noundef null) #8
  %25 = load ptr, ptr %6, align 8, !tbaa !43
  %26 = icmp eq ptr %25, null
  br i1 %26, label %dh_validate_public.exit, label %27

27:                                               ; preds = %24
  %28 = call i32 @ossl_dh_is_named_safe_prime_group(ptr noundef %0) #8
  %.not.i = icmp eq i32 %28, 0
  %29 = load ptr, ptr %6, align 8, !tbaa !43
  br i1 %.not.i, label %32, label %30

30:                                               ; preds = %27
  %31 = call i32 @ossl_dh_check_pub_key_partial(ptr noundef %0, ptr noundef %29, ptr noundef nonnull %7) #8
  br label %dh_validate_public.exit

32:                                               ; preds = %27
  %33 = call i32 @DH_check_pub_key_ex(ptr noundef %0, ptr noundef %29) #8
  br label %dh_validate_public.exit

dh_validate_public.exit:                          ; preds = %24, %30, %32
  %.0.i = phi i32 [ %31, %30 ], [ %33, %32 ], [ 0, %24 ]
  call void @llvm.lifetime.end.p0(i64 4, ptr nonnull %7) #8
  call void @llvm.lifetime.end.p0(i64 8, ptr nonnull %6) #8
  %34 = icmp ne i32 %.0.i, 0
  br label %35

35:                                               ; preds = %22, %dh_validate_public.exit
  %.1.in = phi i1 [ %narrow, %22 ], [ %34, %dh_validate_public.exit ]
  %.1 = zext i1 %.1.in to i32
  %36 = and i32 %1, 1
  %.not22 = icmp eq i32 %36, 0
  br i1 %.not22, label %45, label %37

37:                                               ; preds = %35
  br i1 %.1.in, label %38, label %.thread28

38:                                               ; preds = %37
  call void @llvm.lifetime.start.p0(i64 4, ptr nonnull %4) #8
  store i32 0, ptr %4, align 4, !tbaa !44
  call void @llvm.lifetime.start.p0(i64 8, ptr nonnull %5) #8
  store ptr null, ptr %5, align 8, !tbaa !43
  call void @DH_get0_key(ptr noundef %0, ptr noundef null, ptr noundef nonnull %5) #8
  %39 = load ptr, ptr %5, align 8, !tbaa !43
  %40 = icmp eq ptr %39, null
  br i1 %40, label %dh_validate_private.exit, label %41

41:                                               ; preds = %38
  %42 = call i32 @ossl_dh_check_priv_key(ptr noundef %0, ptr noundef nonnull %39, ptr noundef nonnull %4) #8
  %43 = icmp ne i32 %42, 0
  %44 = zext i1 %43 to i32
  br label %dh_validate_private.exit

dh_validate_private.exit:                         ; preds = %38, %41
  %.0.i25 = phi i32 [ %44, %41 ], [ 0, %38 ]
  call void @llvm.lifetime.end.p0(i64 8, ptr nonnull %5) #8
  call void @llvm.lifetime.end.p0(i64 4, ptr nonnull %4) #8
  br label %45

45:                                               ; preds = %dh_validate_private.exit, %35
  %.2 = phi i32 [ %.1, %35 ], [ %.0.i25, %dh_validate_private.exit ]
  %46 = and i32 %1, 3
  %47 = icmp eq i32 %46, 3
  br i1 %47, label %48, label %.thread28

48:                                               ; preds = %45
  %.not24 = icmp eq i32 %.2, 0
  br i1 %.not24, label %.thread28, label %49

49:                                               ; preds = %48
  %50 = call i32 @ossl_dh_check_pairwise(ptr noundef %0) #8
  %51 = icmp ne i32 %50, 0
  %52 = zext i1 %51 to i32
  br label %.thread28

.thread28:                                        ; preds = %37, %45, %49, %48, %9, %3
  %.019 = phi i32 [ 0, %3 ], [ 1, %9 ], [ %.2, %45 ], [ 0, %48 ], [ %52, %49 ], [ 0, %37 ]
  ret i32 %.019
}